; Function Attrs: mustprogress uwtable
define void @_ZN3gmx21DensityFittingOptions18setFitGroupIndicesERKNS_19IndexGroupsAndNamesE(ptr noundef nonnull align 8 dereferenceable(656) %0, ptr noundef nonnull align 8 dereferenceable(24) %1) local_unnamed_addr #0 align 2 personality ptr @__gxx_personality_v0 {
  %3 = alloca %"class.std::vector", align 16
  %4 = getelementptr inbounds i8, ptr %0, i64 520
  %5 = load i8, ptr %4, align 8
  %6 = trunc i8 %5 to i1
  br i1 %6, label %7, label %_ZNSt6vectorIlSaIlEED2Ev.exit

7:                                                ; preds = %2
  %8 = getelementptr inbounds i8, ptr %0, i64 72
  call void @_ZNK3gmx19IndexGroupsAndNames7indicesERKNSt7__cxx1112basic_stringIcSt11char_traitsIcESaIcEEE(ptr dead_on_unwind nonnull writable sret(%"class.std::vector") align 8 %3, ptr noundef nonnull align 8 dereferenceable(24) %1, ptr noundef nonnull align 8 dereferenceable(32) %8)
  %9 = getelementptr inbounds i8, ptr %0, i64 528
  %10 = load ptr, ptr %9, align 8
  %11 = getelementptr inbounds i8, ptr %0, i64 544
  %12 = load <2 x ptr>, ptr %3, align 16
  store <2 x ptr> %12, ptr %9, align 8
  %13 = getelementptr inbounds i8, ptr %3, i64 16
  %14 = load ptr, ptr %13, align 16
  store ptr %14, ptr %11, align 8
  %.not.i.i.i.i.i = icmp eq ptr %10, null
  call void @llvm.memset.p0.i64(ptr noundef nonnull align 16 dereferenceable(24) %3, i8 0, i64 24, i1 false)
  br i1 %.not.i.i.i.i.i, label %_ZNSt6vectorIlSaIlEED2Ev.exit, label %_ZNSt6vectorIlSaIlEEaSEOS1_.exit

_ZNSt6vectorIlSaIlEEaSEOS1_.exit:                 ; preds = %7
  call void @_ZdlPv(ptr noundef nonnull %10) #24
  %.pr = load ptr, ptr %3, align 16
  %.not.i.i.i = icmp eq ptr %.pr, null
  br i1 %.not.i.i.i, label %_ZNSt6vectorIlSaIlEED2Ev.exit, label %15

15:                                               ; preds = %_ZNSt6vectorIlSaIlEEaSEOS1_.exit
  call void @_ZdlPv(ptr noundef nonnull %.pr) #24
  br label %_ZNSt6vectorIlSaIlEED2Ev.exit

_ZNSt6vectorIlSaIlEED2Ev.exit:                    ; preds = %7, %15, %_ZNSt6vectorIlSaIlEEaSEOS1_.exit, %2
  ret void
}